target datalayout = "e-m:e-p270:32:32-p271:32:32-p272:64:64-i64:64-i128:128-f80:128-n8:16:32:64-S128"
target triple = "x86_64-pc-linux-gnu"

%struct.SurfaceDataRasInfo = type { %struct.SurfaceDataBounds, ptr, i32, i32, i32, i32, ptr, ptr, ptr, ptr, ptr, ptr, i32, %union.anon.0 }
%struct.SurfaceDataBounds = type { i32, i32, i32, i32 }
%union.anon.0 = type { ptr, [56 x i8] }

; Function Attrs: nounwind uwtable
define hidden void @IntRgbToIntArgbScaleConvert(ptr noundef %0, ptr noundef %1, i32 noundef %2, i32 noundef %3, i32 noundef %4, i32 noundef %5, i32 noundef %6, i32 noundef %7, i32 noundef %8, ptr noundef %9, ptr noundef %10, ptr noundef %11, ptr noundef %12) #1 {
  %14 = alloca ptr, align 8
  %15 = alloca ptr, align 8
  %16 = alloca i32, align 4
  %17 = alloca i32, align 4
  %18 = alloca i32, align 4
  %19 = alloca i32, align 4
  %20 = alloca i32, align 4
  %21 = alloca i32, align 4
  %22 = alloca i32, align 4
  %23 = alloca ptr, align 8
  %24 = alloca ptr, align 8
  %25 = alloca ptr, align 8
  %26 = alloca ptr, align 8
  %27 = alloca ptr, align 8
  %28 = alloca ptr, align 8
  %29 = alloca i32, align 4
  %30 = alloca i32, align 4
  %31 = alloca i32, align 4
  %32 = alloca i32, align 4
  %33 = alloca i32, align 4
  %34 = alloca i32, align 4
  store ptr %0, ptr %14, align 8
  store ptr %1, ptr %15, align 8
  store i32 %2, ptr %16, align 4
  store i32 %3, ptr %17, align 4
  store i32 %4, ptr %18, align 4
  store i32 %5, ptr %19, align 4
  store i32 %6, ptr %20, align 4
  store i32 %7, ptr %21, align 4
  store i32 %8, ptr %22, align 4
  store ptr %9, ptr %23, align 8
  store ptr %10, ptr %24, align 8
  store ptr %11, ptr %25, align 8
  store ptr %12, ptr %26, align 8
  br label %35

35:                                               ; preds = %13
  %36 = load ptr, ptr %15, align 8
  store ptr %36, ptr %28, align 8
  %37 = load ptr, ptr %23, align 8
  %38 = getelementptr inbounds %struct.SurfaceDataRasInfo, ptr %37, i32 0, i32 4
  %39 = load i32, ptr %38, align 8
  store i32 %39, ptr %29, align 4
  %40 = load ptr, ptr %24, align 8
  %41 = getelementptr inbounds %struct.SurfaceDataRasInfo, ptr %40, i32 0, i32 4
  %42 = load i32, ptr %41, align 8
  store i32 %42, ptr %30, align 4
  %43 = load i32, ptr %16, align 4
  %44 = mul i32 %43, 4
  %45 = load i32, ptr %30, align 4
  %46 = sub i32 %45, %44
  store i32 %46, ptr %30, align 4
  br label %47

47:                                               ; preds = %97, %35
  %48 = load i32, ptr %16, align 4
  store i32 %48, ptr %31, align 4
  %49 = load i32, ptr %18, align 4
  store i32 %49, ptr %32, align 4
  %50 = load ptr, ptr %14, align 8
  %51 = ptrtoint ptr %50 to i64
  %52 = load i32, ptr %19, align 4
  %53 = load i32, ptr %22, align 4
  %54 = ashr i32 %52, %53
  %55 = sext i32 %54 to i64
  %56 = load i32, ptr %29, align 4
  %57 = sext i32 %56 to i64
  %58 = mul nsw i64 %55, %57
  %59 = add nsw i64 %51, %58
  %60 = inttoptr i64 %59 to ptr
  store ptr %60, ptr %27, align 8
  br label %61

61:                                               ; preds = %83, %47
  %62 = load i32, ptr %32, align 4
  %63 = load i32, ptr %22, align 4
  %64 = ashr i32 %62, %63
  store i32 %64, ptr %33, align 4
  br label %65

65:                                               ; preds = %61
  %66 = load ptr, ptr %27, align 8
  %67 = load i32, ptr %33, align 4
  %68 = sext i32 %67 to i64
  %69 = getelementptr inbounds i32, ptr %66, i64 %68
  %70 = load i32, ptr %69, align 4
  store i32 %70, ptr %34, align 4
  %71 = load i32, ptr %34, align 4
  %72 = or i32 -16777216, %71
  %73 = load ptr, ptr %28, align 8
  %74 = getelementptr inbounds i32, ptr %73, i64 0
  store i32 %72, ptr %74, align 4
  br label %75

75:                                               ; preds = %65
  %76 = load ptr, ptr %28, align 8
  %77 = ptrtoint ptr %76 to i64
  %78 = add nsw i64 %77, 4
  %79 = inttoptr i64 %78 to ptr
  store ptr %79, ptr %28, align 8
  %80 = load i32, ptr %20, align 4
  %81 = load i32, ptr %32, align 4
  %82 = add nsw i32 %81, %80
  store i32 %82, ptr %32, align 4
  br label %83

83:                                               ; preds = %75
  %84 = load i32, ptr %31, align 4
  %85 = add i32 %84, -1
  store i32 %85, ptr %31, align 4
  %86 = icmp ugt i32 %85, 0
  br i1 %86, label %61, label %87, !llvm.loop !13

87:                                               ; preds = %83
  %88 = load ptr, ptr %28, align 8
  %89 = ptrtoint ptr %88 to i64
  %90 = load i32, ptr %30, align 4
  %91 = sext i32 %90 to i64
  %92 = add nsw i64 %89, %91
  %93 = inttoptr i64 %92 to ptr
  store ptr %93, ptr %28, align 8
  %94 = load i32, ptr %21, align 4
  %95 = load i32, ptr %19, align 4
  %96 = add nsw i32 %95, %94
  store i32 %96, ptr %19, align 4
  br label %97

97:                                               ; preds = %87
  %98 = load i32, ptr %17, align 4
  %99 = add i32 %98, -1
  store i32 %99, ptr %17, align 4
  %100 = icmp ugt i32 %99, 0
  br i1 %100, label %47, label %101, !llvm.loop !14

101:                                              ; preds = %97
  br label %102

102:                                              ; preds = %101
  ret void
}