; Function Attrs: nofree norecurse nosync nounwind memory(readwrite, inaccessiblemem: none) uwtable
define hidden void @IntRgbToIntArgbScaleConvert(ptr noundef %0, ptr noundef %1, i32 noundef %2, i32 noundef %3, i32 noundef %4, i32 noundef %5, i32 noundef %6, i32 noundef %7, i32 noundef %8, ptr nocapture noundef readonly %9, ptr nocapture noundef readonly %10, ptr nocapture readnone %11, ptr nocapture readnone %12) #1 {
  %14 = getelementptr inbounds i8, ptr %9, i64 32
  %15 = load i32, ptr %14, align 8
  %16 = getelementptr inbounds i8, ptr %10, i64 32
  %17 = load i32, ptr %16, align 8
  %18 = shl i32 %2, 2
  %19 = sub i32 %17, %18
  %20 = sext i32 %19 to i64
  %21 = ptrtoint ptr %0 to i64
  %22 = sext i32 %15 to i64
  br label %23

23:                                               ; preds = %40, %13
  %.028 = phi ptr [ %1, %13 ], [ %42, %40 ]
  %.025 = phi i32 [ %5, %13 ], [ %43, %40 ]
  %.0 = phi i32 [ %3, %13 ], [ %44, %40 ]
  %24 = ashr i32 %.025, %8
  %25 = sext i32 %24 to i64
  %26 = mul nsw i64 %25, %22
  %27 = add nsw i64 %26, %21
  %28 = inttoptr i64 %27 to ptr
  br label %29

29:                                               ; preds = %29, %23
  %.1 = phi ptr [ %.028, %23 ], [ %37, %29 ]
  %.027 = phi i32 [ %2, %23 ], [ %39, %29 ]
  %.026 = phi i32 [ %4, %23 ], [ %38, %29 ]
  %30 = ashr i32 %.026, %8
  %31 = sext i32 %30 to i64
  %32 = getelementptr inbounds i32, ptr %28, i64 %31
  %33 = load i32, ptr %32, align 4
  %34 = or i32 %33, -16777216
  store i32 %34, ptr %.1, align 4
  %35 = ptrtoint ptr %.1 to i64
  %36 = add nsw i64 %35, 4
  %37 = inttoptr i64 %36 to ptr
  %38 = add nsw i32 %.026, %6
  %39 = add i32 %.027, -1
  %.not = icmp eq i32 %39, 0
  br i1 %.not, label %40, label %29, !llvm.loop !13

40:                                               ; preds = %29
  %41 = add nsw i64 %36, %20
  %42 = inttoptr i64 %41 to ptr
  %43 = add nsw i32 %.025, %7
  %44 = add i32 %.0, -1
  %.not30 = icmp eq i32 %44, 0
  br i1 %.not30, label %45, label %23, !llvm.loop !14

45:                                               ; preds = %40
  ret void
}